; Function Attrs: mustprogress uwtable
define hidden void @_ZNK3smt12theory_array7displayERSo(ptr noundef nonnull align 8 dereferenceable(444) %0, ptr noundef nonnull align 8 dereferenceable(8) %1) unnamed_addr #4 align 2 {
  %3 = getelementptr inbounds nuw i8, ptr %0, i64 32
  %4 = load ptr, ptr %3, align 8, !tbaa !550
  %5 = icmp eq ptr %4, null
  br i1 %5, label %_ZNK3smt6theory12get_num_varsEv.exit.thread, label %_ZNK3smt6theory12get_num_varsEv.exit

_ZNK3smt6theory12get_num_varsEv.exit:             ; preds = %2
  %6 = getelementptr inbounds i8, ptr %4, i64 -4
  %7 = load i32, ptr %6, align 4, !tbaa !560
  %8 = icmp eq i32 %7, 0
  br i1 %8, label %_ZNK3smt6theory12get_num_varsEv.exit.thread, label %9

9:                                                ; preds = %_ZNK3smt6theory12get_num_varsEv.exit
  %10 = tail call noundef nonnull align 8 dereferenceable(8) ptr @_ZSt16__ostream_insertIcSt11char_traitsIcEERSt13basic_ostreamIT_T0_ES6_PKS3_l(ptr noundef nonnull align 8 dereferenceable(8) %1, ptr noundef nonnull @.str.6, i64 noundef 14)
  br label %11

11:                                               ; preds = %9, %11
  %.09 = phi i32 [ 0, %9 ], [ %15, %11 ]
  %12 = load ptr, ptr %0, align 8, !tbaa !3
  %13 = getelementptr inbounds nuw i8, ptr %12, i64 440
  %14 = load ptr, ptr %13, align 8
  tail call void %14(ptr noundef nonnull align 8 dereferenceable(444) %0, ptr noundef nonnull align 8 dereferenceable(8) %1, i32 noundef %.09)
  %15 = add nuw i32 %.09, 1
  %exitcond.not = icmp eq i32 %15, %7
  br i1 %exitcond.not, label %_ZNK3smt6theory12get_num_varsEv.exit.thread, label %11, !llvm.loop !638

_ZNK3smt6theory12get_num_varsEv.exit.thread:      ; preds = %11, %2, %_ZNK3smt6theory12get_num_varsEv.exit
  ret void
}